; ModuleID = '42/544.c'
source_filename = "42/544.c"
target datalayout = "e-m:e-p270:32:32-p271:32:32-p272:64:64-i64:64-f80:128-n8:16:32:64-S128"
target triple = "x86_64-pc-linux-gnu"

@.str = private unnamed_addr constant [3 x i8] c"%d\00", align 1
@.str.1 = private unnamed_addr constant [4 x i8] c"%d \00", align 1

; Function Attrs: noinline nounwind uwtable
define dso_local i32 @main() #0 {
  %1 = alloca i32, align 4
  %2 = alloca [100000 x i32], align 16
  %3 = alloca i32, align 4
  %4 = alloca i32, align 4
  %5 = alloca i32, align 4
  %6 = alloca i32, align 4
  %7 = alloca i32*, align 8
  %8 = alloca i32*, align 8
  store i32 0, i32* %1, align 4
  store i32 0, i32* %6, align 4
  %9 = getelementptr inbounds [100000 x i32], [100000 x i32]* %2, i64 0, i64 0
  store i32* %9, i32** %7, align 8
  %10 = call i32 (i8*, ...) @__isoc99_scanf(i8* getelementptr inbounds ([3 x i8], [3 x i8]* @.str, i64 0, i64 0), i32* %3)
  store i32 0, i32* %4, align 4
  br label %11

11:                                               ; preds = %21, %0
  %12 = load i32, i32* %4, align 4
  %13 = load i32, i32* %3, align 4
  %14 = icmp slt i32 %12, %13
  br i1 %14, label %15, label %24

15:                                               ; preds = %11
  %16 = load i32*, i32** %7, align 8
  %17 = load i32, i32* %4, align 4
  %18 = sext i32 %17 to i64
  %19 = getelementptr inbounds i32, i32* %16, i64 %18
  %20 = call i32 (i8*, ...) @__isoc99_scanf(i8* getelementptr inbounds ([3 x i8], [3 x i8]* @.str, i64 0, i64 0), i32* %19)
  br label %21

21:                                               ; preds = %15
  %22 = load i32, i32* %4, align 4
  %23 = add nsw i32 %22, 1
  store i32 %23, i32* %4, align 4
  br label %11

24:                                               ; preds = %11
  %25 = call i32 (i8*, ...) @__isoc99_scanf(i8* getelementptr inbounds ([3 x i8], [3 x i8]* @.str, i64 0, i64 0), i32* %5)
  store i32 0, i32* %4, align 4
  br label %26

26:                                               ; preds = %70, %24
  %27 = load i32, i32* %4, align 4
  %28 = load i32, i32* %3, align 4
  %29 = load i32, i32* %6, align 4
  %30 = sub nsw i32 %28, %29
  %31 = icmp slt i32 %27, %30
  br i1 %31, label %32, label %73

32:                                               ; preds = %26
  %33 = load i32*, i32** %7, align 8
  %34 = load i32, i32* %4, align 4
  %35 = sext i32 %34 to i64
  %36 = getelementptr inbounds i32, i32* %33, i64 %35
  %37 = load i32, i32* %36, align 4
  %38 = load i32, i32* %5, align 4
  %39 = icmp eq i32 %37, %38
  br i1 %39, label %40, label %69

40:                                               ; preds = %32
  %41 = load i32*, i32** %7, align 8
  %42 = load i32, i32* %4, align 4
  %43 = sext i32 %42 to i64
  %44 = getelementptr inbounds i32, i32* %41, i64 %43
  store i32* %44, i32** %8, align 8
  br label %45

45:                                               ; preds = %61, %40
  %46 = load i32*, i32** %8, align 8
  %47 = getelementptr inbounds [100000 x i32], [100000 x i32]* %2, i64 0, i64 0
  %48 = load i32, i32* %3, align 4
  %49 = sext i32 %48 to i64
  %50 = getelementptr inbounds i32, i32* %47, i64 %49
  %51 = load i32, i32* %6, align 4
  %52 = sext i32 %51 to i64
  %53 = sub i64 0, %52
  %54 = getelementptr inbounds i32, i32* %50, i64 %53
  %55 = icmp ult i32* %46, %54
  br i1 %55, label %56, label %64

56:                                               ; preds = %45
  %57 = load i32*, i32** %8, align 8
  %58 = getelementptr inbounds i32, i32* %57, i64 1
  %59 = load i32, i32* %58, align 4
  %60 = load i32*, i32** %8, align 8
  store i32 %59, i32* %60, align 4
  br label %61

61:                                               ; preds = %56
  %62 = load i32*, i32** %8, align 8
  %63 = getelementptr inbounds i32, i32* %62, i32 1
  store i32* %63, i32** %8, align 8
  br label %45

64:                                               ; preds = %45
  %65 = load i32, i32* %4, align 4
  %66 = add nsw i32 %65, -1
  store i32 %66, i32* %4, align 4
  %67 = load i32, i32* %6, align 4
  %68 = add nsw i32 %67, 1
  store i32 %68, i32* %6, align 4
  br label %69

69:                                               ; preds = %64, %32
  br label %70

70:                                               ; preds = %69
  %71 = load i32, i32* %4, align 4
  %72 = add nsw i32 %71, 1
  store i32 %72, i32* %4, align 4
  br label %26

73:                                               ; preds = %26
  store i32 0, i32* %4, align 4
  br label %74

74:                                               ; preds = %88, %73
  %75 = load i32, i32* %4, align 4
  %76 = load i32, i32* %3, align 4
  %77 = load i32, i32* %6, align 4
  %78 = sub nsw i32 %76, %77
  %79 = sub nsw i32 %78, 1
  %80 = icmp slt i32 %75, %79
  br i1 %80, label %81, label %91

81:                                               ; preds = %74
  %82 = load i32*, i32** %7, align 8
  %83 = load i32, i32* %4, align 4
  %84 = sext i32 %83 to i64
  %85 = getelementptr inbounds i32, i32* %82, i64 %84
  %86 = load i32, i32* %85, align 4
  %87 = call i32 (i8*, ...) @printf(i8* getelementptr inbounds ([4 x i8], [4 x i8]* @.str.1, i64 0, i64 0), i32 %86)
  br label %88

88:                                               ; preds = %81
  %89 = load i32, i32* %4, align 4
  %90 = add nsw i32 %89, 1
  store i32 %90, i32* %4, align 4
  br label %74

91:                                               ; preds = %74
  %92 = load i32*, i32** %7, align 8
  %93 = load i32, i32* %3, align 4
  %94 = sext i32 %93 to i64
  %95 = getelementptr inbounds i32, i32* %92, i64 %94
  %96 = load i32, i32* %6, align 4
  %97 = sext i32 %96 to i64
  %98 = sub i64 0, %97
  %99 = getelementptr inbounds i32, i32* %95, i64 %98
  %100 = getelementptr inbounds i32, i32* %99, i64 -1
  %101 = load i32, i32* %100, align 4
  %102 = call i32 (i8*, ...) @printf(i8* getelementptr inbounds ([3 x i8], [3 x i8]* @.str, i64 0, i64 0), i32 %101)
  ret i32 0
}

declare dso_local i32 @__isoc99_scanf(i8*, ...) #1

declare dso_local i32 @printf(i8*, ...) #1


!llvm.module.flags = !{!0}
!llvm.ident = !{!1}

!0 = !{i32 1, !"wchar_size", i32 4}
!1 = !{!"clang version 10.0.0-4ubuntu1 "}
